target datalayout = "e-m:e-p270:32:32-p271:32:32-p272:64:64-i64:64-i128:128-f80:128-n8:16:32:64-S128"
target triple = "x86_64-pc-linux-gnu"

@Truth6 = internal global [6 x i64] [i64 -6148914691236517206, i64 -3689348814741910324, i64 -1085102592571150096, i64 -71777214294589696, i64 -281470681808896, i64 -4294967296], align 16

; Function Attrs: nounwind uwtable
define internal i64 @If_Dec6ComposeLut4(i32 noundef %0, ptr noundef %1) #0 {
  %3 = alloca i32, align 4
  %4 = alloca ptr, align 8
  %5 = alloca i32, align 4
  %6 = alloca i32, align 4
  %7 = alloca i64, align 8
  %8 = alloca i64, align 8
  store i32 %0, ptr %3, align 4, !tbaa !7
  store ptr %1, ptr %4, align 8, !tbaa !15
  call void @llvm.lifetime.start.p0(i64 4, ptr %5) #7
  call void @llvm.lifetime.start.p0(i64 4, ptr %6) #7
  call void @llvm.lifetime.start.p0(i64 8, ptr %7) #7
  call void @llvm.lifetime.start.p0(i64 8, ptr %8) #7
  store i64 0, ptr %8, align 8, !tbaa !3
  store i32 0, ptr %5, align 4, !tbaa !7
  br label %9

9:                                                ; preds = %53, %2
  %10 = load i32, ptr %5, align 4, !tbaa !7
  %11 = icmp slt i32 %10, 16
  br i1 %11, label %12, label %56

12:                                               ; preds = %9
  %13 = load i32, ptr %3, align 4, !tbaa !7
  %14 = load i32, ptr %5, align 4, !tbaa !7
  %15 = ashr i32 %13, %14
  %16 = and i32 %15, 1
  %17 = icmp ne i32 %16, 0
  br i1 %17, label %19, label %18

18:                                               ; preds = %12
  br label %53

19:                                               ; preds = %12
  store i64 -1, ptr %7, align 8, !tbaa !3
  store i32 0, ptr %6, align 4, !tbaa !7
  br label %20

20:                                               ; preds = %46, %19
  %21 = load i32, ptr %6, align 4, !tbaa !7
  %22 = icmp slt i32 %21, 4
  br i1 %22, label %23, label %49

23:                                               ; preds = %20
  %24 = load i32, ptr %5, align 4, !tbaa !7
  %25 = load i32, ptr %6, align 4, !tbaa !7
  %26 = ashr i32 %24, %25
  %27 = and i32 %26, 1
  %28 = icmp ne i32 %27, 0
  br i1 %28, label %29, label %35

29:                                               ; preds = %23
  %30 = load ptr, ptr %4, align 8, !tbaa !15
  %31 = load i32, ptr %6, align 4, !tbaa !7
  %32 = sext i32 %31 to i64
  %33 = getelementptr inbounds i64, ptr %30, i64 %32
  %34 = load i64, ptr %33, align 8, !tbaa !3
  br label %42

35:                                               ; preds = %23
  %36 = load ptr, ptr %4, align 8, !tbaa !15
  %37 = load i32, ptr %6, align 4, !tbaa !7
  %38 = sext i32 %37 to i64
  %39 = getelementptr inbounds i64, ptr %36, i64 %38
  %40 = load i64, ptr %39, align 8, !tbaa !3
  %41 = xor i64 %40, -1
  br label %42

42:                                               ; preds = %35, %29
  %43 = phi i64 [ %34, %29 ], [ %41, %35 ]
  %44 = load i64, ptr %7, align 8, !tbaa !3
  %45 = and i64 %44, %43
  store i64 %45, ptr %7, align 8, !tbaa !3
  br label %46

46:                                               ; preds = %42
  %47 = load i32, ptr %6, align 4, !tbaa !7
  %48 = add nsw i32 %47, 1
  store i32 %48, ptr %6, align 4, !tbaa !7
  br label %20, !llvm.loop !17

49:                                               ; preds = %20
  %50 = load i64, ptr %7, align 8, !tbaa !3
  %51 = load i64, ptr %8, align 8, !tbaa !3
  %52 = or i64 %51, %50
  store i64 %52, ptr %8, align 8, !tbaa !3
  br label %53

53:                                               ; preds = %49, %18
  %54 = load i32, ptr %5, align 4, !tbaa !7
  %55 = add nsw i32 %54, 1
  store i32 %55, ptr %5, align 4, !tbaa !7
  br label %9, !llvm.loop !18

56:                                               ; preds = %9
  %57 = load i64, ptr %8, align 8, !tbaa !3
  call void @llvm.lifetime.end.p0(i64 8, ptr %8) #7
  call void @llvm.lifetime.end.p0(i64 8, ptr %7) #7
  call void @llvm.lifetime.end.p0(i64 4, ptr %6) #7
  call void @llvm.lifetime.end.p0(i64 4, ptr %5) #7
  ret i64 %57
}

; Function Attrs: nounwind uwtable
define i64 @If_Dec6Truth(i64 noundef %0) #0 {
  %2 = alloca i64, align 8
  %3 = alloca i64, align 8
  %4 = alloca i64, align 8
  %5 = alloca [4 x i64], align 16
  %6 = alloca i32, align 4
  %7 = alloca i32, align 4
  store i64 %0, ptr %2, align 8, !tbaa !3
  call void @llvm.lifetime.start.p0(i64 8, ptr %3) #7
  call void @llvm.lifetime.start.p0(i64 8, ptr %4) #7
  call void @llvm.lifetime.start.p0(i64 32, ptr %5) #7
  call void @llvm.lifetime.start.p0(i64 4, ptr %6) #7
  call void @llvm.lifetime.start.p0(i64 4, ptr %7) #7
  store i32 0, ptr %6, align 4, !tbaa !7
  br label %8

8:                                                ; preds = %31, %1
  %9 = load i32, ptr %6, align 4, !tbaa !7
  %10 = icmp slt i32 %9, 4
  br i1 %10, label %11, label %34

11:                                               ; preds = %8
  %12 = load i64, ptr %2, align 8, !tbaa !3
  %13 = load i32, ptr %6, align 4, !tbaa !7
  %14 = shl i32 %13, 2
  %15 = add nsw i32 16, %14
  %16 = zext i32 %15 to i64
  %17 = lshr i64 %12, %16
  %18 = and i64 %17, 7
  %19 = trunc i64 %18 to i32
  store i32 %19, ptr %7, align 4, !tbaa !7
  %20 = load i32, ptr %7, align 4, !tbaa !7
  %21 = icmp eq i32 %20, 6
  br i1 %21, label %22, label %23

22:                                               ; preds = %11
  br label %31

23:                                               ; preds = %11
  %24 = load i32, ptr %7, align 4, !tbaa !7
  %25 = sext i32 %24 to i64
  %26 = getelementptr inbounds [6 x i64], ptr @Truth6, i64 0, i64 %25
  %27 = load i64, ptr %26, align 8, !tbaa !3
  %28 = load i32, ptr %6, align 4, !tbaa !7
  %29 = sext i32 %28 to i64
  %30 = getelementptr inbounds [4 x i64], ptr %5, i64 0, i64 %29
  store i64 %27, ptr %30, align 8, !tbaa !3
  br label %31

31:                                               ; preds = %23, %22
  %32 = load i32, ptr %6, align 4, !tbaa !7
  %33 = add nsw i32 %32, 1
  store i32 %33, ptr %6, align 4, !tbaa !7
  br label %8, !llvm.loop !12

34:                                               ; preds = %8
  %35 = load i64, ptr %2, align 8, !tbaa !3
  %36 = and i64 %35, 65535
  %37 = trunc i64 %36 to i32
  %38 = getelementptr inbounds [4 x i64], ptr %5, i64 0, i64 0
  %39 = call i64 @If_Dec6ComposeLut4(i32 noundef %37, ptr noundef %38)
  store i64 %39, ptr %4, align 8, !tbaa !3
  store i32 0, ptr %6, align 4, !tbaa !7
  br label %40

40:                                               ; preds = %70, %34
  %41 = load i32, ptr %6, align 4, !tbaa !7
  %42 = icmp slt i32 %41, 4
  br i1 %42, label %43, label %73

43:                                               ; preds = %40
  %44 = load i64, ptr %2, align 8, !tbaa !3
  %45 = load i32, ptr %6, align 4, !tbaa !7
  %46 = shl i32 %45, 2
  %47 = add nsw i32 48, %46
  %48 = zext i32 %47 to i64
  %49 = lshr i64 %44, %48
  %50 = and i64 %49, 7
  %51 = trunc i64 %50 to i32
  store i32 %51, ptr %7, align 4, !tbaa !7
  %52 = load i32, ptr %7, align 4, !tbaa !7
  %53 = icmp eq i32 %52, 6
  br i1 %53, label %54, label %55

54:                                               ; preds = %43
  br label %70

55:                                               ; preds = %43
  %56 = load i32, ptr %7, align 4, !tbaa !7
  %57 = icmp eq i32 %56, 7
  br i1 %57, label %58, label %60

58:                                               ; preds = %55
  %59 = load i64, ptr %4, align 8, !tbaa !3
  br label %65

60:                                               ; preds = %55
  %61 = load i32, ptr %7, align 4, !tbaa !7
  %62 = sext i32 %61 to i64
  %63 = getelementptr inbounds [6 x i64], ptr @Truth6, i64 0, i64 %62
  %64 = load i64, ptr %63, align 8, !tbaa !3
  br label %65

65:                                               ; preds = %60, %58
  %66 = phi i64 [ %59, %58 ], [ %64, %60 ]
  %67 = load i32, ptr %6, align 4, !tbaa !7
  %68 = sext i32 %67 to i64
  %69 = getelementptr inbounds [4 x i64], ptr %5, i64 0, i64 %68
  store i64 %66, ptr %69, align 8, !tbaa !3
  br label %70

70:                                               ; preds = %65, %54
  %71 = load i32, ptr %6, align 4, !tbaa !7
  %72 = add nsw i32 %71, 1
  store i32 %72, ptr %6, align 4, !tbaa !7
  br label %40, !llvm.loop !14

73:                                               ; preds = %40
  %74 = load i64, ptr %2, align 8, !tbaa !3
  %75 = lshr i64 %74, 32
  %76 = and i64 %75, 65535
  %77 = trunc i64 %76 to i32
  %78 = getelementptr inbounds [4 x i64], ptr %5, i64 0, i64 0
  %79 = call i64 @If_Dec6ComposeLut4(i32 noundef %77, ptr noundef %78)
  store i64 %79, ptr %3, align 8, !tbaa !3
  %80 = load i64, ptr %3, align 8, !tbaa !3
  call void @llvm.lifetime.end.p0(i64 4, ptr %7) #7
  call void @llvm.lifetime.end.p0(i64 4, ptr %6) #7
  call void @llvm.lifetime.end.p0(i64 32, ptr %5) #7
  call void @llvm.lifetime.end.p0(i64 8, ptr %4) #7
  call void @llvm.lifetime.end.p0(i64 8, ptr %3) #7
  ret i64 %80
}