; Function Attrs: nofree norecurse nosync nounwind memory(none) uwtable
define i64 @If_Dec6Truth(i64 noundef %0) local_unnamed_addr #4 {
  %2 = alloca [4 x i64], align 16
  call void @llvm.lifetime.start.p0(i64 32, ptr nonnull %2) #14
  br label %3

3:                                                ; preds = %1, %13
  %indvars.iv = phi i64 [ 0, %1 ], [ %indvars.iv.next, %13 ]
  %4 = shl nuw nsw i64 %indvars.iv, 2
  %5 = add nuw nsw i64 %4, 16
  %6 = lshr i64 %0, %5
  %7 = and i64 %6, 7
  %8 = icmp eq i64 %7, 6
  br i1 %8, label %13, label %9

9:                                                ; preds = %3
  %10 = getelementptr inbounds nuw [6 x i64], ptr @s_Truths6, i64 0, i64 %7
  %11 = load i64, ptr %10, align 8, !tbaa !10
  %12 = getelementptr inbounds nuw [4 x i64], ptr %2, i64 0, i64 %indvars.iv
  store i64 %11, ptr %12, align 8, !tbaa !10
  br label %13

13:                                               ; preds = %3, %9
  %indvars.iv.next = add nuw nsw i64 %indvars.iv, 1
  %exitcond.not = icmp eq i64 %indvars.iv.next, 4
  br i1 %exitcond.not, label %14, label %3, !llvm.loop !12

14:                                               ; preds = %13
  %15 = trunc i64 %0 to i32
  %16 = and i32 %15, 65535
  br label %17

17:                                               ; preds = %30, %14
  %.022.i = phi i64 [ 0, %14 ], [ %.1.i, %30 ]
  %.01721.i = phi i32 [ 0, %14 ], [ %31, %30 ]
  %18 = shl nuw nsw i32 1, %.01721.i
  %19 = and i32 %16, %18
  %.not.i = icmp eq i32 %19, 0
  br i1 %.not.i, label %30, label %.preheader.i

.preheader.i:                                     ; preds = %17, %.preheader.i
  %indvars.iv.i = phi i64 [ %indvars.iv.next.i, %.preheader.i ], [ 0, %17 ]
  %.01520.i = phi i64 [ %27, %.preheader.i ], [ -1, %17 ]
  %20 = trunc nuw nsw i64 %indvars.iv.i to i32
  %21 = shl nuw nsw i32 1, %20
  %22 = and i32 %21, %.01721.i
  %.not18.i = icmp eq i32 %22, 0
  %23 = getelementptr inbounds nuw i64, ptr %2, i64 %indvars.iv.i
  %24 = load i64, ptr %23, align 8, !tbaa !10
  %25 = sext i1 %.not18.i to i64
  %26 = xor i64 %24, %25
  %27 = and i64 %26, %.01520.i
  %indvars.iv.next.i = add nuw nsw i64 %indvars.iv.i, 1
  %exitcond.not.i = icmp eq i64 %indvars.iv.next.i, 4
  br i1 %exitcond.not.i, label %28, label %.preheader.i, !llvm.loop !14

28:                                               ; preds = %.preheader.i
  %29 = or i64 %27, %.022.i
  br label %30

30:                                               ; preds = %28, %17
  %.1.i = phi i64 [ %29, %28 ], [ %.022.i, %17 ]
  %31 = add nuw nsw i32 %.01721.i, 1
  %exitcond24.not.i = icmp eq i32 %31, 16
  br i1 %exitcond24.not.i, label %If_Dec6ComposeLut4.exit.preheader, label %17, !llvm.loop !15

If_Dec6ComposeLut4.exit.preheader:                ; preds = %30, %If_Dec6ComposeLut4.exit
  %indvars.iv38 = phi i64 [ %indvars.iv.next39, %If_Dec6ComposeLut4.exit ], [ 0, %30 ]
  %32 = shl nuw nsw i64 %indvars.iv38, 2
  %33 = add nuw nsw i64 %32, 48
  %34 = lshr i64 %0, %33
  %35 = trunc nuw nsw i64 %34 to i32
  %36 = and i32 %35, 7
  switch i32 %36, label %37 [
    i32 6, label %If_Dec6ComposeLut4.exit
    i32 7, label %41
  ]

37:                                               ; preds = %If_Dec6ComposeLut4.exit.preheader
  %38 = and i64 %34, 7
  %39 = getelementptr inbounds nuw [6 x i64], ptr @s_Truths6, i64 0, i64 %38
  %40 = load i64, ptr %39, align 8, !tbaa !10
  br label %41

41:                                               ; preds = %If_Dec6ComposeLut4.exit.preheader, %37
  %42 = phi i64 [ %40, %37 ], [ %.1.i, %If_Dec6ComposeLut4.exit.preheader ]
  %43 = getelementptr inbounds nuw [4 x i64], ptr %2, i64 0, i64 %indvars.iv38
  store i64 %42, ptr %43, align 8, !tbaa !10
  br label %If_Dec6ComposeLut4.exit

If_Dec6ComposeLut4.exit:                          ; preds = %If_Dec6ComposeLut4.exit.preheader, %41
  %indvars.iv.next39 = add nuw nsw i64 %indvars.iv38, 1
  %exitcond41.not = icmp eq i64 %indvars.iv.next39, 4
  br i1 %exitcond41.not, label %44, label %If_Dec6ComposeLut4.exit.preheader, !llvm.loop !16

44:                                               ; preds = %If_Dec6ComposeLut4.exit
  %45 = lshr i64 %0, 32
  %46 = trunc nuw i64 %45 to i32
  %47 = and i32 %46, 65535
  br label %48

48:                                               ; preds = %61, %44
  %.022.i21 = phi i64 [ 0, %44 ], [ %.1.i30, %61 ]
  %.01721.i22 = phi i32 [ 0, %44 ], [ %62, %61 ]
  %49 = shl nuw nsw i32 1, %.01721.i22
  %50 = and i32 %47, %49
  %.not.i23 = icmp eq i32 %50, 0
  br i1 %.not.i23, label %61, label %.preheader.i24

.preheader.i24:                                   ; preds = %48, %.preheader.i24
  %indvars.iv.i25 = phi i64 [ %indvars.iv.next.i28, %.preheader.i24 ], [ 0, %48 ]
  %.01520.i26 = phi i64 [ %58, %.preheader.i24 ], [ -1, %48 ]
  %51 = trunc nuw nsw i64 %indvars.iv.i25 to i32
  %52 = shl nuw nsw i32 1, %51
  %53 = and i32 %52, %.01721.i22
  %.not18.i27 = icmp eq i32 %53, 0
  %54 = getelementptr inbounds nuw i64, ptr %2, i64 %indvars.iv.i25
  %55 = load i64, ptr %54, align 8, !tbaa !10
  %56 = sext i1 %.not18.i27 to i64
  %57 = xor i64 %55, %56
  %58 = and i64 %57, %.01520.i26
  %indvars.iv.next.i28 = add nuw nsw i64 %indvars.iv.i25, 1
  %exitcond.not.i29 = icmp eq i64 %indvars.iv.next.i28, 4
  br i1 %exitcond.not.i29, label %59, label %.preheader.i24, !llvm.loop !14

59:                                               ; preds = %.preheader.i24
  %60 = or i64 %58, %.022.i21
  br label %61

61:                                               ; preds = %59, %48
  %.1.i30 = phi i64 [ %60, %59 ], [ %.022.i21, %48 ]
  %62 = add nuw nsw i32 %.01721.i22, 1
  %exitcond24.not.i31 = icmp eq i32 %62, 16
  br i1 %exitcond24.not.i31, label %If_Dec6ComposeLut4.exit32, label %48, !llvm.loop !15

If_Dec6ComposeLut4.exit32:                        ; preds = %61
  call void @llvm.lifetime.end.p0(i64 32, ptr nonnull %2) #14
  ret i64 %.1.i30
}